target datalayout = "e-m:e-p270:32:32-p271:32:32-p272:64:64-i64:64-i128:128-f80:128-n8:16:32:64-S128"
target triple = "x86_64-pc-linux-gnu"

%struct.lxb_html_tokenizer = type { ptr, ptr, ptr, ptr, ptr, ptr, ptr, ptr, ptr, ptr, ptr, ptr, ptr, ptr, ptr, i64, ptr, ptr, ptr, ptr, ptr, i64, i64, ptr, ptr, i64, i64, i32, i32, i8, i32, i32, i8, ptr, i64 }

@.str.6 = private unnamed_addr constant [7 x i8] c"script\00", align 1

; Function Attrs: nounwind uwtable
define internal i32 @lxb_html_tokenizer_temp_realloc(ptr noundef %0, i64 noundef %1) #0 {
  %3 = alloca i32, align 4
  %4 = alloca ptr, align 8
  %5 = alloca i64, align 8
  %6 = alloca i64, align 8
  %7 = alloca i64, align 8
  store ptr %0, ptr %4, align 8
  store i64 %1, ptr %5, align 8
  %8 = load ptr, ptr %4, align 8
  %9 = getelementptr inbounds %struct.lxb_html_tokenizer, ptr %8, i32 0, i32 17
  %10 = load ptr, ptr %9, align 8
  %11 = load ptr, ptr %4, align 8
  %12 = getelementptr inbounds %struct.lxb_html_tokenizer, ptr %11, i32 0, i32 16
  %13 = load ptr, ptr %12, align 8
  %14 = ptrtoint ptr %10 to i64
  %15 = ptrtoint ptr %13 to i64
  %16 = sub i64 %14, %15
  store i64 %16, ptr %6, align 8
  %17 = load ptr, ptr %4, align 8
  %18 = getelementptr inbounds %struct.lxb_html_tokenizer, ptr %17, i32 0, i32 18
  %19 = load ptr, ptr %18, align 8
  %20 = load ptr, ptr %4, align 8
  %21 = getelementptr inbounds %struct.lxb_html_tokenizer, ptr %20, i32 0, i32 16
  %22 = load ptr, ptr %21, align 8
  %23 = ptrtoint ptr %19 to i64
  %24 = ptrtoint ptr %22 to i64
  %25 = sub i64 %23, %24
  %26 = load i64, ptr %5, align 8
  %27 = add i64 %25, %26
  %28 = add i64 %27, 4096
  store i64 %28, ptr %7, align 8
  %29 = load ptr, ptr %4, align 8
  %30 = getelementptr inbounds %struct.lxb_html_tokenizer, ptr %29, i32 0, i32 16
  %31 = load ptr, ptr %30, align 8
  %32 = load i64, ptr %7, align 8
  %33 = call ptr @lexbor_realloc(ptr noundef %31, i64 noundef %32)
  %34 = load ptr, ptr %4, align 8
  %35 = getelementptr inbounds %struct.lxb_html_tokenizer, ptr %34, i32 0, i32 16
  store ptr %33, ptr %35, align 8
  %36 = load ptr, ptr %4, align 8
  %37 = getelementptr inbounds %struct.lxb_html_tokenizer, ptr %36, i32 0, i32 16
  %38 = load ptr, ptr %37, align 8
  %39 = icmp eq ptr %38, null
  br i1 %39, label %40, label %46

40:                                               ; preds = %2
  %41 = load ptr, ptr %4, align 8
  %42 = getelementptr inbounds %struct.lxb_html_tokenizer, ptr %41, i32 0, i32 31
  store i32 2, ptr %42, align 8
  %43 = load ptr, ptr %4, align 8
  %44 = getelementptr inbounds %struct.lxb_html_tokenizer, ptr %43, i32 0, i32 31
  %45 = load i32, ptr %44, align 8
  store i32 %45, ptr %3, align 4
  br label %61

46:                                               ; preds = %2
  %47 = load ptr, ptr %4, align 8
  %48 = getelementptr inbounds %struct.lxb_html_tokenizer, ptr %47, i32 0, i32 16
  %49 = load ptr, ptr %48, align 8
  %50 = load i64, ptr %6, align 8
  %51 = getelementptr inbounds i8, ptr %49, i64 %50
  %52 = load ptr, ptr %4, align 8
  %53 = getelementptr inbounds %struct.lxb_html_tokenizer, ptr %52, i32 0, i32 17
  store ptr %51, ptr %53, align 8
  %54 = load ptr, ptr %4, align 8
  %55 = getelementptr inbounds %struct.lxb_html_tokenizer, ptr %54, i32 0, i32 16
  %56 = load ptr, ptr %55, align 8
  %57 = load i64, ptr %7, align 8
  %58 = getelementptr inbounds i8, ptr %56, i64 %57
  %59 = load ptr, ptr %4, align 8
  %60 = getelementptr inbounds %struct.lxb_html_tokenizer, ptr %59, i32 0, i32 18
  store ptr %58, ptr %60, align 8
  store i32 0, ptr %3, align 4
  br label %61

61:                                               ; preds = %46, %40
  %62 = load i32, ptr %3, align 4
  ret i32 %62
}

; Function Attrs: nounwind uwtable
define internal i32 @lxb_html_tokenizer_temp_append_data(ptr noundef %0, ptr noundef %1) #0 {
  %3 = alloca i32, align 4
  %4 = alloca ptr, align 8
  %5 = alloca ptr, align 8
  %6 = alloca i64, align 8
  store ptr %0, ptr %4, align 8
  store ptr %1, ptr %5, align 8
  %7 = load ptr, ptr %5, align 8
  %8 = load ptr, ptr %4, align 8
  %9 = getelementptr inbounds %struct.lxb_html_tokenizer, ptr %8, i32 0, i32 19
  %10 = load ptr, ptr %9, align 8
  %11 = ptrtoint ptr %7 to i64
  %12 = ptrtoint ptr %10 to i64
  %13 = sub i64 %11, %12
  store i64 %13, ptr %6, align 8
  %14 = load ptr, ptr %4, align 8
  %15 = getelementptr inbounds %struct.lxb_html_tokenizer, ptr %14, i32 0, i32 17
  %16 = load ptr, ptr %15, align 8
  %17 = load i64, ptr %6, align 8
  %18 = getelementptr inbounds i8, ptr %16, i64 %17
  %19 = load ptr, ptr %4, align 8
  %20 = getelementptr inbounds %struct.lxb_html_tokenizer, ptr %19, i32 0, i32 18
  %21 = load ptr, ptr %20, align 8
  %22 = icmp ugt ptr %18, %21
  br i1 %22, label %23, label %33

23:                                               ; preds = %2
  %24 = load ptr, ptr %4, align 8
  %25 = load i64, ptr %6, align 8
  %26 = call i32 @lxb_html_tokenizer_temp_realloc(ptr noundef %24, i64 noundef %25)
  %27 = icmp ne i32 %26, 0
  br i1 %27, label %28, label %32

28:                                               ; preds = %23
  %29 = load ptr, ptr %4, align 8
  %30 = getelementptr inbounds %struct.lxb_html_tokenizer, ptr %29, i32 0, i32 31
  %31 = load i32, ptr %30, align 8
  store i32 %31, ptr %3, align 4
  br label %45

32:                                               ; preds = %23
  br label %33

33:                                               ; preds = %32, %2
  %34 = load ptr, ptr %4, align 8
  %35 = getelementptr inbounds %struct.lxb_html_tokenizer, ptr %34, i32 0, i32 17
  %36 = load ptr, ptr %35, align 8
  %37 = load ptr, ptr %4, align 8
  %38 = getelementptr inbounds %struct.lxb_html_tokenizer, ptr %37, i32 0, i32 19
  %39 = load ptr, ptr %38, align 8
  %40 = load i64, ptr %6, align 8
  call void @llvm.memcpy.p0.p0.i64(ptr align 1 %36, ptr align 1 %39, i64 %40, i1 false)
  %41 = load i64, ptr %6, align 8
  %42 = getelementptr inbounds i8, ptr %36, i64 %41
  %43 = load ptr, ptr %4, align 8
  %44 = getelementptr inbounds %struct.lxb_html_tokenizer, ptr %43, i32 0, i32 17
  store ptr %42, ptr %44, align 8
  store i32 0, ptr %3, align 4
  br label %45

45:                                               ; preds = %33, %28
  %46 = load i32, ptr %3, align 4
  ret i32 %46
}

; Function Attrs: nounwind uwtable
define internal ptr @lxb_html_tokenizer_state_script_data_double_escape_end(ptr noundef %0, ptr noundef %1, ptr noundef %2) #0 {
  %4 = alloca ptr, align 8
  %5 = alloca ptr, align 8
  %6 = alloca ptr, align 8
  %7 = alloca ptr, align 8
  store ptr %0, ptr %5, align 8
  store ptr %1, ptr %6, align 8
  store ptr %2, ptr %7, align 8
  %8 = load ptr, ptr %6, align 8
  %9 = load ptr, ptr %5, align 8
  %10 = getelementptr inbounds %struct.lxb_html_tokenizer, ptr %9, i32 0, i32 19
  store ptr %8, ptr %10, align 8
  br label %11

11:                                               ; preds = %81, %3
  %12 = load ptr, ptr %6, align 8
  %13 = load ptr, ptr %7, align 8
  %14 = icmp ne ptr %12, %13
  br i1 %14, label %15, label %84

15:                                               ; preds = %11
  %16 = load ptr, ptr %6, align 8
  %17 = load i8, ptr %16, align 1
  %18 = zext i8 %17 to i32
  switch i32 %18, label %60 [
    i32 9, label %19
    i32 10, label %19
    i32 12, label %19
    i32 13, label %19
    i32 32, label %19
    i32 47, label %19
    i32 62, label %19
  ]

19:                                               ; preds = %15, %15, %15, %15, %15, %15, %15
  br label %20

20:                                               ; preds = %19
  %21 = load ptr, ptr %5, align 8
  %22 = load ptr, ptr %6, align 8
  %23 = call i32 @lxb_html_tokenizer_temp_append_data(ptr noundef %21, ptr noundef %22)
  %24 = icmp ne i32 %23, 0
  br i1 %24, label %25, label %27

25:                                               ; preds = %20
  %26 = load ptr, ptr %7, align 8
  store ptr %26, ptr %4, align 8
  br label %95

27:                                               ; preds = %20
  br label %28

28:                                               ; preds = %27
  %29 = load ptr, ptr %5, align 8
  %30 = getelementptr inbounds %struct.lxb_html_tokenizer, ptr %29, i32 0, i32 17
  %31 = load ptr, ptr %30, align 8
  %32 = load ptr, ptr %5, align 8
  %33 = getelementptr inbounds %struct.lxb_html_tokenizer, ptr %32, i32 0, i32 16
  %34 = load ptr, ptr %33, align 8
  %35 = load ptr, ptr %5, align 8
  %36 = getelementptr inbounds %struct.lxb_html_tokenizer, ptr %35, i32 0, i32 25
  %37 = load i64, ptr %36, align 8
  %38 = getelementptr inbounds i8, ptr %34, i64 %37
  %39 = ptrtoint ptr %31 to i64
  %40 = ptrtoint ptr %38 to i64
  %41 = sub i64 %39, %40
  %42 = icmp eq i64 %41, 6
  br i1 %42, label %43, label %56

43:                                               ; preds = %28
  %44 = load ptr, ptr %5, align 8
  %45 = getelementptr inbounds %struct.lxb_html_tokenizer, ptr %44, i32 0, i32 16
  %46 = load ptr, ptr %45, align 8
  %47 = load ptr, ptr %5, align 8
  %48 = getelementptr inbounds %struct.lxb_html_tokenizer, ptr %47, i32 0, i32 25
  %49 = load i64, ptr %48, align 8
  %50 = getelementptr inbounds i8, ptr %46, i64 %49
  %51 = call zeroext i1 @lexbor_str_data_ncasecmp(ptr noundef %50, ptr noundef @.str.6, i64 noundef 6)
  br i1 %51, label %52, label %56

52:                                               ; preds = %43
  %53 = load ptr, ptr %5, align 8
  %54 = getelementptr inbounds %struct.lxb_html_tokenizer, ptr %53, i32 0, i32 0
  store ptr @lxb_html_tokenizer_state_script_data_escaped, ptr %54, align 8
  %55 = load ptr, ptr %6, align 8
  store ptr %55, ptr %4, align 8
  br label %95

56:                                               ; preds = %43, %28
  %57 = load ptr, ptr %5, align 8
  %58 = getelementptr inbounds %struct.lxb_html_tokenizer, ptr %57, i32 0, i32 0
  store ptr @lxb_html_tokenizer_state_script_data_double_escaped, ptr %58, align 8
  %59 = load ptr, ptr %6, align 8
  store ptr %59, ptr %4, align 8
  br label %95

60:                                               ; preds = %15
  %61 = load ptr, ptr %6, align 8
  %62 = load i8, ptr %61, align 1
  %63 = zext i8 %62 to i64
  %64 = getelementptr inbounds [256 x i64], ptr @lexbor_str_res_alpha_character, i64 0, i64 %63
  %65 = load i64, ptr %64, align 8
  %66 = icmp eq i64 %65, 255
  br i1 %66, label %67, label %80

67:                                               ; preds = %60
  br label %68

68:                                               ; preds = %67
  %69 = load ptr, ptr %5, align 8
  %70 = load ptr, ptr %6, align 8
  %71 = call i32 @lxb_html_tokenizer_temp_append_data(ptr noundef %69, ptr noundef %70)
  %72 = icmp ne i32 %71, 0
  br i1 %72, label %73, label %75

73:                                               ; preds = %68
  %74 = load ptr, ptr %7, align 8
  store ptr %74, ptr %4, align 8
  br label %95

75:                                               ; preds = %68
  br label %76

76:                                               ; preds = %75
  %77 = load ptr, ptr %5, align 8
  %78 = getelementptr inbounds %struct.lxb_html_tokenizer, ptr %77, i32 0, i32 0
  store ptr @lxb_html_tokenizer_state_script_data_double_escaped, ptr %78, align 8
  %79 = load ptr, ptr %6, align 8
  store ptr %79, ptr %4, align 8
  br label %95

80:                                               ; preds = %60
  br label %81

81:                                               ; preds = %80
  %82 = load ptr, ptr %6, align 8
  %83 = getelementptr inbounds i8, ptr %82, i32 1
  store ptr %83, ptr %6, align 8
  br label %11

84:                                               ; preds = %11
  br label %85

85:                                               ; preds = %84
  %86 = load ptr, ptr %5, align 8
  %87 = load ptr, ptr %6, align 8
  %88 = call i32 @lxb_html_tokenizer_temp_append_data(ptr noundef %86, ptr noundef %87)
  %89 = icmp ne i32 %88, 0
  br i1 %89, label %90, label %92

90:                                               ; preds = %85
  %91 = load ptr, ptr %7, align 8
  store ptr %91, ptr %4, align 8
  br label %95

92:                                               ; preds = %85
  br label %93

93:                                               ; preds = %92
  %94 = load ptr, ptr %6, align 8
  store ptr %94, ptr %4, align 8
  br label %95

95:                                               ; preds = %93, %90, %76, %73, %56, %52, %25
  %96 = load ptr, ptr %4, align 8
  ret ptr %96
}